target datalayout = "e-m:e-p270:32:32-p271:32:32-p272:64:64-i64:64-i128:128-f80:128-n8:16:32:64-S128"
target triple = "x86_64-pc-linux-gnu"

%class.MemorySizeArgument = type { i64, i64, i8 }
%class.GenDCmdArgument.base = type <{ ptr, ptr, ptr, ptr, ptr, ptr, i8, i8, i8 }>
%class.DCmdArgument.7 = type { %class.GenDCmdArgument.base, %class.MemorySizeArgument }

@.str = private unnamed_addr constant [50 x i8] c"src/hotspot/share/services/diagnosticArgument.cpp\00", align 1
@.str.31 = private unnamed_addr constant [62 x i8] c"Parsing error memory size value: syntax error, value is null\0A\00", align 1
@.str.32 = private unnamed_addr constant [62 x i8] c"Parsing error memory size value: negative values not allowed\0A\00", align 1
@.str.33 = private unnamed_addr constant [6 x i8] c"%lu%c\00", align 1
@.str.34 = private unnamed_addr constant [48 x i8] c"Parsing error memory size value: invalid value\0A\00", align 1
@_ZN6Symbol11_vm_symbolsE = external global [0 x ptr], align 8

; Function Attrs: mustprogress nounwind uwtable
define linkonce_odr hidden noundef ptr @_ZN9vmSymbols34java_lang_IllegalArgumentExceptionEv() #1 comdat align 2 {
  %1 = load ptr, ptr getelementptr inbounds ([0 x ptr], ptr @_ZN6Symbol11_vm_symbolsE, i64 0, i64 138), align 8
  ret ptr %1
}

; Function Attrs: mustprogress nounwind uwtable
define hidden void @_ZN12DCmdArgumentI18MemorySizeArgumentE11parse_valueEPKcmP10JavaThread(ptr noundef nonnull align 8 dereferenceable(80) %0, ptr noundef %1, i64 noundef %2, ptr noundef %3) unnamed_addr #1 align 2 {
  %5 = alloca ptr, align 8
  %6 = alloca ptr, align 8
  %7 = alloca i64, align 8
  %8 = alloca ptr, align 8
  %9 = alloca i32, align 4
  store ptr %0, ptr %5, align 8
  store ptr %1, ptr %6, align 8
  store i64 %2, ptr %7, align 8
  store ptr %3, ptr %8, align 8
  %10 = load ptr, ptr %5, align 8
  %11 = load ptr, ptr %6, align 8
  %12 = icmp eq ptr %11, null
  br i1 %12, label %13, label %16

13:                                               ; preds = %4
  %14 = load ptr, ptr %8, align 8
  %15 = call noundef ptr @_ZN9vmSymbols34java_lang_IllegalArgumentExceptionEv()
  call void @_ZN10Exceptions10_throw_msgEP10JavaThreadPKciP6SymbolS3_(ptr noundef %14, ptr noundef @.str, i32 noundef 306, ptr noundef %15, ptr noundef @.str.31)
  br label %84

16:                                               ; preds = %4
  %17 = load ptr, ptr %6, align 8
  %18 = load i8, ptr %17, align 1
  %19 = sext i8 %18 to i32
  %20 = icmp eq i32 %19, 45
  br i1 %20, label %21, label %24

21:                                               ; preds = %16
  %22 = load ptr, ptr %8, align 8
  %23 = call noundef ptr @_ZN9vmSymbols34java_lang_IllegalArgumentExceptionEv()
  call void @_ZN10Exceptions10_throw_msgEP10JavaThreadPKciP6SymbolS3_(ptr noundef %22, ptr noundef @.str, i32 noundef 310, ptr noundef %23, ptr noundef @.str.32)
  br label %84

24:                                               ; preds = %16
  %25 = load ptr, ptr %6, align 8
  %26 = getelementptr inbounds %class.DCmdArgument.7, ptr %10, i32 0, i32 1
  %27 = getelementptr inbounds %class.MemorySizeArgument, ptr %26, i32 0, i32 1
  %28 = getelementptr inbounds %class.DCmdArgument.7, ptr %10, i32 0, i32 1
  %29 = getelementptr inbounds %class.MemorySizeArgument, ptr %28, i32 0, i32 2
  %30 = call i32 (ptr, ptr, ...) @__isoc99_sscanf(ptr noundef %25, ptr noundef @.str.33, ptr noundef %27, ptr noundef %29) #7
  store i32 %30, ptr %9, align 4
  %31 = load i32, ptr %9, align 4
  %32 = icmp eq i32 %31, 2
  br i1 %32, label %33, label %71

33:                                               ; preds = %24
  %34 = getelementptr inbounds %class.DCmdArgument.7, ptr %10, i32 0, i32 1
  %35 = getelementptr inbounds %class.MemorySizeArgument, ptr %34, i32 0, i32 2
  %36 = load i8, ptr %35, align 8
  %37 = sext i8 %36 to i32
  switch i32 %37, label %62 [
    i32 107, label %38
    i32 75, label %38
    i32 109, label %45
    i32 77, label %45
    i32 103, label %53
    i32 71, label %53
  ]

38:                                               ; preds = %33, %33
  %39 = getelementptr inbounds %class.DCmdArgument.7, ptr %10, i32 0, i32 1
  %40 = getelementptr inbounds %class.MemorySizeArgument, ptr %39, i32 0, i32 1
  %41 = load i64, ptr %40, align 8
  %42 = mul i64 %41, 1024
  %43 = getelementptr inbounds %class.DCmdArgument.7, ptr %10, i32 0, i32 1
  %44 = getelementptr inbounds %class.MemorySizeArgument, ptr %43, i32 0, i32 0
  store i64 %42, ptr %44, align 8
  br label %70

45:                                               ; preds = %33, %33
  %46 = getelementptr inbounds %class.DCmdArgument.7, ptr %10, i32 0, i32 1
  %47 = getelementptr inbounds %class.MemorySizeArgument, ptr %46, i32 0, i32 1
  %48 = load i64, ptr %47, align 8
  %49 = mul i64 %48, 1024
  %50 = mul i64 %49, 1024
  %51 = getelementptr inbounds %class.DCmdArgument.7, ptr %10, i32 0, i32 1
  %52 = getelementptr inbounds %class.MemorySizeArgument, ptr %51, i32 0, i32 0
  store i64 %50, ptr %52, align 8
  br label %70

53:                                               ; preds = %33, %33
  %54 = getelementptr inbounds %class.DCmdArgument.7, ptr %10, i32 0, i32 1
  %55 = getelementptr inbounds %class.MemorySizeArgument, ptr %54, i32 0, i32 1
  %56 = load i64, ptr %55, align 8
  %57 = mul i64 %56, 1024
  %58 = mul i64 %57, 1024
  %59 = mul i64 %58, 1024
  %60 = getelementptr inbounds %class.DCmdArgument.7, ptr %10, i32 0, i32 1
  %61 = getelementptr inbounds %class.MemorySizeArgument, ptr %60, i32 0, i32 0
  store i64 %59, ptr %61, align 8
  br label %70

62:                                               ; preds = %33
  %63 = getelementptr inbounds %class.DCmdArgument.7, ptr %10, i32 0, i32 1
  %64 = getelementptr inbounds %class.MemorySizeArgument, ptr %63, i32 0, i32 1
  %65 = load i64, ptr %64, align 8
  %66 = getelementptr inbounds %class.DCmdArgument.7, ptr %10, i32 0, i32 1
  %67 = getelementptr inbounds %class.MemorySizeArgument, ptr %66, i32 0, i32 0
  store i64 %65, ptr %67, align 8
  %68 = getelementptr inbounds %class.DCmdArgument.7, ptr %10, i32 0, i32 1
  %69 = getelementptr inbounds %class.MemorySizeArgument, ptr %68, i32 0, i32 2
  store i8 32, ptr %69, align 8
  br label %70

70:                                               ; preds = %62, %53, %45, %38
  br label %84

71:                                               ; preds = %24
  %72 = load i32, ptr %9, align 4
  %73 = icmp eq i32 %72, 1
  br i1 %73, label %74, label %80

74:                                               ; preds = %71
  %75 = getelementptr inbounds %class.DCmdArgument.7, ptr %10, i32 0, i32 1
  %76 = getelementptr inbounds %class.MemorySizeArgument, ptr %75, i32 0, i32 1
  %77 = load i64, ptr %76, align 8
  %78 = getelementptr inbounds %class.DCmdArgument.7, ptr %10, i32 0, i32 1
  %79 = getelementptr inbounds %class.MemorySizeArgument, ptr %78, i32 0, i32 0
  store i64 %77, ptr %79, align 8
  br label %83

80:                                               ; preds = %71
  %81 = load ptr, ptr %8, align 8
  %82 = call noundef ptr @_ZN9vmSymbols34java_lang_IllegalArgumentExceptionEv()
  call void @_ZN10Exceptions10_throw_msgEP10JavaThreadPKciP6SymbolS3_(ptr noundef %81, ptr noundef @.str, i32 noundef 335, ptr noundef %82, ptr noundef @.str.34)
  br label %84

83:                                               ; preds = %74
  br label %84

84:                                               ; preds = %83, %80, %70, %21, %13
  ret void
}