; Function Attrs: mustprogress nounwind uwtable
define hidden void @_ZN12DCmdArgumentI18MemorySizeArgumentE11parse_valueEPKcmP10JavaThread(ptr noundef nonnull align 8 dereferenceable(80) %0, ptr noundef readonly %1, i64 noundef %2, ptr noundef %3) unnamed_addr #0 align 2 {
  %5 = icmp eq ptr %1, null
  br i1 %5, label %6, label %8

6:                                                ; preds = %4
  %7 = load ptr, ptr getelementptr inbounds (i8, ptr @_ZN6Symbol11_vm_symbolsE, i64 1104), align 8
  tail call void @_ZN10Exceptions10_throw_msgEP10JavaThreadPKciP6SymbolS3_(ptr noundef %3, ptr noundef nonnull @.str, i32 noundef 306, ptr noundef %7, ptr noundef nonnull @.str.31) #15
  br label %35

8:                                                ; preds = %4
  %9 = load i8, ptr %1, align 1
  %10 = icmp eq i8 %9, 45
  br i1 %10, label %11, label %13

11:                                               ; preds = %8
  %12 = load ptr, ptr getelementptr inbounds (i8, ptr @_ZN6Symbol11_vm_symbolsE, i64 1104), align 8
  tail call void @_ZN10Exceptions10_throw_msgEP10JavaThreadPKciP6SymbolS3_(ptr noundef %3, ptr noundef nonnull @.str, i32 noundef 310, ptr noundef %12, ptr noundef nonnull @.str.32) #15
  br label %35

13:                                               ; preds = %8
  %14 = getelementptr inbounds i8, ptr %0, i64 56
  %15 = getelementptr inbounds i8, ptr %0, i64 64
  %16 = getelementptr inbounds i8, ptr %0, i64 72
  %17 = tail call i32 (ptr, ptr, ...) @__isoc99_sscanf(ptr noundef nonnull %1, ptr noundef nonnull @.str.33, ptr noundef nonnull %15, ptr noundef nonnull %16) #15
  switch i32 %17, label %33 [
    i32 2, label %18
    i32 1, label %31
  ]

18:                                               ; preds = %13
  %19 = load i8, ptr %16, align 8
  switch i8 %19, label %29 [
    i8 107, label %20
    i8 75, label %20
    i8 109, label %23
    i8 77, label %23
    i8 103, label %26
    i8 71, label %26
  ]

20:                                               ; preds = %18, %18
  %21 = load i64, ptr %15, align 8
  %22 = shl i64 %21, 10
  store i64 %22, ptr %14, align 8
  br label %35

23:                                               ; preds = %18, %18
  %24 = load i64, ptr %15, align 8
  %25 = shl i64 %24, 20
  store i64 %25, ptr %14, align 8
  br label %35

26:                                               ; preds = %18, %18
  %27 = load i64, ptr %15, align 8
  %28 = shl i64 %27, 30
  store i64 %28, ptr %14, align 8
  br label %35

29:                                               ; preds = %18
  %30 = load i64, ptr %15, align 8
  store i64 %30, ptr %14, align 8
  store i8 32, ptr %16, align 8
  br label %35

31:                                               ; preds = %13
  %32 = load i64, ptr %15, align 8
  store i64 %32, ptr %14, align 8
  br label %35

33:                                               ; preds = %13
  %34 = load ptr, ptr getelementptr inbounds (i8, ptr @_ZN6Symbol11_vm_symbolsE, i64 1104), align 8
  tail call void @_ZN10Exceptions10_throw_msgEP10JavaThreadPKciP6SymbolS3_(ptr noundef %3, ptr noundef nonnull @.str, i32 noundef 335, ptr noundef %34, ptr noundef nonnull @.str.34) #15
  br label %35

35:                                               ; preds = %20, %23, %26, %29, %31, %33, %11, %6
  ret void
}